; ModuleID = '20/651.c'
source_filename = "20/651.c"
target datalayout = "e-m:e-p270:32:32-p271:32:32-p272:64:64-i64:64-f80:128-n8:16:32:64-S128"
target triple = "x86_64-pc-linux-gnu"

@.str = private unnamed_addr constant [6 x i8] c"%s %s\00", align 1
@.str.1 = private unnamed_addr constant [1 x i8] zeroinitializer, align 1
@.str.2 = private unnamed_addr constant [4 x i8] c"%s\0A\00", align 1

; Function Attrs: noinline nounwind uwtable
define dso_local i32 @main() #0 {
  %1 = alloca i32, align 4
  %2 = alloca i32, align 4
  %3 = alloca i32, align 4
  %4 = alloca i32, align 4
  %5 = alloca [20 x i8], align 16
  %6 = alloca [10 x i8], align 1
  %7 = alloca [20 x i8], align 16
  %8 = alloca [20 x i8], align 16
  store i32 0, i32* %1, align 4
  br label %9

9:                                                ; preds = %74, %0
  %10 = getelementptr inbounds [20 x i8], [20 x i8]* %5, i64 0, i64 0
  %11 = getelementptr inbounds [10 x i8], [10 x i8]* %6, i64 0, i64 0
  %12 = call i32 (i8*, ...) @__isoc99_scanf(i8* getelementptr inbounds ([6 x i8], [6 x i8]* @.str, i64 0, i64 0), i8* %10, i8* %11)
  %13 = icmp ne i32 %12, -1
  br i1 %13, label %14, label %86

14:                                               ; preds = %9
  store i32 0, i32* %2, align 4
  store i32 0, i32* %3, align 4
  br label %15

15:                                               ; preds = %37, %14
  %16 = load i32, i32* %3, align 4
  %17 = sext i32 %16 to i64
  %18 = getelementptr inbounds [20 x i8], [20 x i8]* %5, i64 0, i64 %17
  %19 = load i8, i8* %18, align 1
  %20 = icmp ne i8 %19, 0
  br i1 %20, label %21, label %40

21:                                               ; preds = %15
  %22 = load i32, i32* %3, align 4
  %23 = sext i32 %22 to i64
  %24 = getelementptr inbounds [20 x i8], [20 x i8]* %5, i64 0, i64 %23
  %25 = load i8, i8* %24, align 1
  %26 = sext i8 %25 to i32
  %27 = load i32, i32* %2, align 4
  %28 = icmp sgt i32 %26, %27
  br i1 %28, label %29, label %36

29:                                               ; preds = %21
  %30 = load i32, i32* %3, align 4
  %31 = sext i32 %30 to i64
  %32 = getelementptr inbounds [20 x i8], [20 x i8]* %5, i64 0, i64 %31
  %33 = load i8, i8* %32, align 1
  %34 = sext i8 %33 to i32
  store i32 %34, i32* %2, align 4
  %35 = load i32, i32* %3, align 4
  store i32 %35, i32* %4, align 4
  br label %36

36:                                               ; preds = %29, %21
  br label %37

37:                                               ; preds = %36
  %38 = load i32, i32* %3, align 4
  %39 = add nsw i32 %38, 1
  store i32 %39, i32* %3, align 4
  br label %15

40:                                               ; preds = %15
  %41 = getelementptr inbounds [20 x i8], [20 x i8]* %7, i64 0, i64 0
  %42 = call i8* @strcpy(i8* %41, i8* getelementptr inbounds ([1 x i8], [1 x i8]* @.str.1, i64 0, i64 0)) #3
  %43 = getelementptr inbounds [20 x i8], [20 x i8]* %7, i64 0, i64 0
  %44 = getelementptr inbounds [20 x i8], [20 x i8]* %5, i64 0, i64 0
  %45 = load i32, i32* %4, align 4
  %46 = add nsw i32 %45, 1
  %47 = sext i32 %46 to i64
  %48 = call i8* @strncat(i8* %43, i8* %44, i64 %47) #3
  %49 = getelementptr inbounds [20 x i8], [20 x i8]* %7, i64 0, i64 0
  %50 = getelementptr inbounds [10 x i8], [10 x i8]* %6, i64 0, i64 0
  %51 = call i8* @strcat(i8* %49, i8* %50) #3
  %52 = load i32, i32* %4, align 4
  %53 = add nsw i32 %52, 1
  store i32 %53, i32* %3, align 4
  br label %54

54:                                               ; preds = %71, %40
  %55 = load i32, i32* %3, align 4
  %56 = sext i32 %55 to i64
  %57 = getelementptr inbounds [20 x i8], [20 x i8]* %5, i64 0, i64 %56
  %58 = load i8, i8* %57, align 1
  %59 = icmp ne i8 %58, 0
  br i1 %59, label %60, label %74

60:                                               ; preds = %54
  %61 = load i32, i32* %3, align 4
  %62 = sext i32 %61 to i64
  %63 = getelementptr inbounds [20 x i8], [20 x i8]* %5, i64 0, i64 %62
  %64 = load i8, i8* %63, align 1
  %65 = load i32, i32* %3, align 4
  %66 = load i32, i32* %4, align 4
  %67 = sub nsw i32 %65, %66
  %68 = sub nsw i32 %67, 1
  %69 = sext i32 %68 to i64
  %70 = getelementptr inbounds [20 x i8], [20 x i8]* %8, i64 0, i64 %69
  store i8 %64, i8* %70, align 1
  br label %71

71:                                               ; preds = %60
  %72 = load i32, i32* %3, align 4
  %73 = add nsw i32 %72, 1
  store i32 %73, i32* %3, align 4
  br label %54

74:                                               ; preds = %54
  %75 = load i32, i32* %3, align 4
  %76 = load i32, i32* %4, align 4
  %77 = sub nsw i32 %75, %76
  %78 = sub nsw i32 %77, 1
  %79 = sext i32 %78 to i64
  %80 = getelementptr inbounds [20 x i8], [20 x i8]* %8, i64 0, i64 %79
  store i8 0, i8* %80, align 1
  %81 = getelementptr inbounds [20 x i8], [20 x i8]* %7, i64 0, i64 0
  %82 = getelementptr inbounds [20 x i8], [20 x i8]* %8, i64 0, i64 0
  %83 = call i8* @strcat(i8* %81, i8* %82) #3
  %84 = getelementptr inbounds [20 x i8], [20 x i8]* %7, i64 0, i64 0
  %85 = call i32 (i8*, ...) @printf(i8* getelementptr inbounds ([4 x i8], [4 x i8]* @.str.2, i64 0, i64 0), i8* %84)
  br label %9

86:                                               ; preds = %9
  ret i32 0
}

declare dso_local i32 @__isoc99_scanf(i8*, ...) #1

; Function Attrs: nounwind
declare dso_local i8* @strcpy(i8*, i8*) #2

; Function Attrs: nounwind
declare dso_local i8* @strncat(i8*, i8*, i64) #2

; Function Attrs: nounwind
declare dso_local i8* @strcat(i8*, i8*) #2

declare dso_local i32 @printf(i8*, ...) #1


!llvm.module.flags = !{!0}
!llvm.ident = !{!1}

!0 = !{i32 1, !"wchar_size", i32 4}
!1 = !{!"clang version 10.0.0-4ubuntu1 "}
